target datalayout = "e-m:e-p270:32:32-p271:32:32-p272:64:64-i64:64-i128:128-f80:128-n8:16:32:64-S128"
target triple = "x86_64-pc-linux-gnu"

%"struct.pybind11::detail::void_type" = type { i8 }
%"class.pybind11::detail::type_caster_generic" = type { ptr, ptr, ptr }
%"class.pybind11::detail::type_caster.492" = type { %"class.pybind11::detail::type_caster_base" }
%"class.pybind11::detail::type_caster_base" = type { %"class.pybind11::detail::type_caster_generic" }
%"struct.std::_Head_base.504" = type { %"class.pybind11::detail::type_caster.492" }
%"class.pybind11::detail::argument_loader.536" = type { %"class.std::tuple.537" }
%"class.std::tuple.537" = type { %"struct.std::_Tuple_impl.538" }
%"struct.std::_Tuple_impl.538" = type { %"struct.std::_Tuple_impl.539", %"struct.std::_Head_base.504" }
%"struct.std::_Tuple_impl.539" = type { %"struct.std::_Head_base.540" }
%"struct.std::_Head_base.540" = type { %"class.pybind11::detail::type_caster.541" }
%"class.pybind11::detail::type_caster.541" = type { %"class.pybind11::detail::type_caster_base.542" }
%"class.pybind11::detail::type_caster_base.542" = type { %"class.pybind11::detail::type_caster_generic" }
%"class.std::vector.600" = type { %"struct.std::_Vector_base.601" }
%"struct.std::_Vector_base.601" = type { %"struct.std::_Vector_base<unsigned long, std::allocator<unsigned long>>::_Vector_impl" }
%"struct.std::_Vector_base<unsigned long, std::allocator<unsigned long>>::_Vector_impl" = type { %"struct.std::_Vector_base<unsigned long, std::allocator<unsigned long>>::_Vector_impl_data" }
%"struct.std::_Vector_base<unsigned long, std::allocator<unsigned long>>::_Vector_impl_data" = type { ptr, ptr, ptr }

@_ZTIN8pybind1120reference_cast_errorE = linkonce_odr hidden constant { ptr, ptr, ptr } { ptr getelementptr inbounds (ptr, ptr @_ZTVN10__cxxabiv120__si_class_type_infoE, i64 2), ptr @_ZTSN8pybind1120reference_cast_errorE, ptr @_ZTIN8pybind1117builtin_exceptionE }, comdat, align 8

; Function Attrs: mustprogress nounwind ssp uwtable
define linkonce_odr hidden noundef nonnull align 8 dereferenceable(24) ptr @_ZNSt10_Head_baseILm1EN8pybind116detail11type_casterIN6open3d8geometry10PointCloudEvEELb0EE7_M_headERS7_(ptr noundef nonnull align 8 dereferenceable(24) %0) #1 comdat align 2 {
  %2 = alloca ptr, align 8
  store ptr %0, ptr %2, align 8, !tbaa !3654
  %3 = load ptr, ptr %2, align 8, !tbaa !3654
  %4 = getelementptr inbounds nuw %"struct.std::_Head_base.540", ptr %3, i32 0, i32 0
  ret ptr %4
}

; Function Attrs: mustprogress nounwind ssp uwtable
define linkonce_odr hidden noundef nonnull align 8 dereferenceable(24) ptr @_ZNSt10_Head_baseILm0EN8pybind116detail11type_casterIN6open3d13visualization22SelectionPolygonVolumeEvEELb0EE7_M_headERS7_(ptr noundef nonnull align 8 dereferenceable(24) %0) #1 comdat align 2 {
  %2 = alloca ptr, align 8
  store ptr %0, ptr %2, align 8, !tbaa !3493
  %3 = load ptr, ptr %2, align 8, !tbaa !3493
  %4 = getelementptr inbounds nuw %"struct.std::_Head_base.504", ptr %3, i32 0, i32 0
  ret ptr %4
}

; Function Attrs: mustprogress nounwind ssp uwtable
define linkonce_odr hidden noundef nonnull align 8 dereferenceable(24) ptr @_ZNSt11_Tuple_implILm1EJN8pybind116detail11type_casterIN6open3d8geometry10PointCloudEvEEEE7_M_headERS7_(ptr noundef nonnull align 8 dereferenceable(24) %0) #1 comdat align 2 {
  %2 = alloca ptr, align 8
  store ptr %0, ptr %2, align 8, !tbaa !3652
  %3 = load ptr, ptr %2, align 8, !tbaa !3652
  %4 = call noundef nonnull align 8 dereferenceable(24) ptr @_ZNSt10_Head_baseILm1EN8pybind116detail11type_casterIN6open3d8geometry10PointCloudEvEELb0EE7_M_headERS7_(ptr noundef nonnull align 8 dereferenceable(24) %3) #7
  ret ptr %4
}

; Function Attrs: mustprogress nounwind ssp uwtable
define linkonce_odr hidden noundef nonnull align 8 dereferenceable(24) ptr @_ZNSt11_Tuple_implILm0EJN8pybind116detail11type_casterIN6open3d13visualization22SelectionPolygonVolumeEvEENS2_INS3_8geometry10PointCloudEvEEEE7_M_headERSA_(ptr noundef nonnull align 8 dereferenceable(48) %0) #1 comdat align 2 {
  %2 = alloca ptr, align 8
  store ptr %0, ptr %2, align 8, !tbaa !3650
  %3 = load ptr, ptr %2, align 8, !tbaa !3650
  %4 = getelementptr inbounds i8, ptr %3, i64 24
  %5 = call noundef nonnull align 8 dereferenceable(24) ptr @_ZNSt10_Head_baseILm0EN8pybind116detail11type_casterIN6open3d13visualization22SelectionPolygonVolumeEvEELb0EE7_M_headERS7_(ptr noundef nonnull align 8 dereferenceable(24) %4) #7
  ret ptr %5
}

; Function Attrs: mustprogress ssp uwtable
define linkonce_odr hidden noundef nonnull align 8 dereferenceable(144) ptr @_ZN8pybind116detail16type_caster_baseIN6open3d8geometry10PointCloudEEcvRS4_Ev(ptr noundef nonnull align 8 dereferenceable(24) %0) #3 comdat align 2 personality ptr @__gxx_personality_v0 !type !3665 {
  %2 = alloca ptr, align 8
  %3 = alloca ptr, align 8
  %4 = alloca i32, align 4
  store ptr %0, ptr %2, align 8, !tbaa !3658
  %5 = load ptr, ptr %2, align 8
  %6 = getelementptr inbounds nuw %"class.pybind11::detail::type_caster_generic", ptr %5, i32 0, i32 2
  %7 = load ptr, ptr %6, align 8, !tbaa !2928
  %8 = icmp ne ptr %7, null
  br i1 %8, label %16, label %9

9:                                                ; preds = %1
  %10 = call ptr @__cxa_allocate_exception(i64 16) #7
  invoke void @_ZN8pybind1120reference_cast_errorC2Ev(ptr noundef nonnull align 8 dereferenceable(16) %10)
          to label %11 unwind label %12

11:                                               ; preds = %9
  call void @__cxa_throw(ptr %10, ptr @_ZTIN8pybind1120reference_cast_errorE, ptr @_ZNSt13runtime_errorD2Ev) #36
  unreachable

12:                                               ; preds = %9
  %13 = landingpad { ptr, i32 }
          cleanup
  %14 = extractvalue { ptr, i32 } %13, 0
  store ptr %14, ptr %3, align 8
  %15 = extractvalue { ptr, i32 } %13, 1
  store i32 %15, ptr %4, align 4
  call void @__cxa_free_exception(ptr %10) #7
  br label %19

16:                                               ; preds = %1
  %17 = getelementptr inbounds nuw %"class.pybind11::detail::type_caster_generic", ptr %5, i32 0, i32 2
  %18 = load ptr, ptr %17, align 8, !tbaa !2928
  ret ptr %18

19:                                               ; preds = %12
  %20 = load ptr, ptr %3, align 8
  %21 = load i32, ptr %4, align 4
  %22 = insertvalue { ptr, i32 } poison, ptr %20, 0
  %23 = insertvalue { ptr, i32 } %22, i32 %21, 1
  resume { ptr, i32 } %23
}

; Function Attrs: mustprogress nounwind ssp uwtable
define linkonce_odr hidden noundef nonnull align 8 dereferenceable(24) ptr @_ZSt12__get_helperILm1EN8pybind116detail11type_casterIN6open3d8geometry10PointCloudEvEEJEERT0_RSt11_Tuple_implIXT_EJS7_DpT1_EE(ptr noundef nonnull align 8 dereferenceable(24) %0) #1 comdat {
  %2 = alloca ptr, align 8
  store ptr %0, ptr %2, align 8, !tbaa !3652
  %3 = load ptr, ptr %2, align 8, !tbaa !3652
  %4 = call noundef nonnull align 8 dereferenceable(24) ptr @_ZNSt11_Tuple_implILm1EJN8pybind116detail11type_casterIN6open3d8geometry10PointCloudEvEEEE7_M_headERS7_(ptr noundef nonnull align 8 dereferenceable(24) %3) #7
  ret ptr %4
}

; Function Attrs: mustprogress ssp uwtable
define linkonce_odr hidden noundef nonnull align 8 dereferenceable(80) ptr @_ZN8pybind116detail16type_caster_baseIN6open3d13visualization22SelectionPolygonVolumeEEcvRS4_Ev(ptr noundef nonnull align 8 dereferenceable(24) %0) #3 comdat align 2 personality ptr @__gxx_personality_v0 !type !3477 {
  %2 = alloca ptr, align 8
  %3 = alloca ptr, align 8
  %4 = alloca i32, align 4
  store ptr %0, ptr %2, align 8, !tbaa !3443
  %5 = load ptr, ptr %2, align 8
  %6 = getelementptr inbounds nuw %"class.pybind11::detail::type_caster_generic", ptr %5, i32 0, i32 2
  %7 = load ptr, ptr %6, align 8, !tbaa !2928
  %8 = icmp ne ptr %7, null
  br i1 %8, label %16, label %9

9:                                                ; preds = %1
  %10 = call ptr @__cxa_allocate_exception(i64 16) #7
  invoke void @_ZN8pybind1120reference_cast_errorC2Ev(ptr noundef nonnull align 8 dereferenceable(16) %10)
          to label %11 unwind label %12

11:                                               ; preds = %9
  call void @__cxa_throw(ptr %10, ptr @_ZTIN8pybind1120reference_cast_errorE, ptr @_ZNSt13runtime_errorD2Ev) #36
  unreachable

12:                                               ; preds = %9
  %13 = landingpad { ptr, i32 }
          cleanup
  %14 = extractvalue { ptr, i32 } %13, 0
  store ptr %14, ptr %3, align 8
  %15 = extractvalue { ptr, i32 } %13, 1
  store i32 %15, ptr %4, align 4
  call void @__cxa_free_exception(ptr %10) #7
  br label %19

16:                                               ; preds = %1
  %17 = getelementptr inbounds nuw %"class.pybind11::detail::type_caster_generic", ptr %5, i32 0, i32 2
  %18 = load ptr, ptr %17, align 8, !tbaa !2928
  ret ptr %18

19:                                               ; preds = %12
  %20 = load ptr, ptr %3, align 8
  %21 = load i32, ptr %4, align 4
  %22 = insertvalue { ptr, i32 } poison, ptr %20, 0
  %23 = insertvalue { ptr, i32 } %22, i32 %21, 1
  resume { ptr, i32 } %23
}

; Function Attrs: mustprogress nounwind ssp uwtable
define linkonce_odr hidden noundef nonnull align 8 dereferenceable(24) ptr @_ZSt12__get_helperILm0EN8pybind116detail11type_casterIN6open3d13visualization22SelectionPolygonVolumeEvEEJNS2_INS3_8geometry10PointCloudEvEEEERT0_RSt11_Tuple_implIXT_EJSA_DpT1_EE(ptr noundef nonnull align 8 dereferenceable(48) %0) #1 comdat {
  %2 = alloca ptr, align 8
  store ptr %0, ptr %2, align 8, !tbaa !3650
  %3 = load ptr, ptr %2, align 8, !tbaa !3650
  %4 = call noundef nonnull align 8 dereferenceable(24) ptr @_ZNSt11_Tuple_implILm0EJN8pybind116detail11type_casterIN6open3d13visualization22SelectionPolygonVolumeEvEENS2_INS3_8geometry10PointCloudEvEEEE7_M_headERSA_(ptr noundef nonnull align 8 dereferenceable(48) %3) #7
  ret ptr %4
}

; Function Attrs: inlinehint mustprogress ssp uwtable
define internal void @"_ZZN6open3d13visualization40pybind_visualization_utility_definitionsERN8pybind117module_EENK3$_2clERKNS0_22SelectionPolygonVolumeERKNS_8geometry10PointCloudE"(ptr dead_on_unwind noalias writable sret(%"class.std::vector.600") align 8 %0, ptr noundef nonnull align 1 dereferenceable(1) %1, ptr noundef nonnull align 8 dereferenceable(80) %2, ptr noundef nonnull align 8 dereferenceable(144) %3) #16 align 2 !type !3745 {
  %5 = alloca ptr, align 8
  %6 = alloca ptr, align 8
  %7 = alloca ptr, align 8
  %8 = alloca ptr, align 8
  store ptr %0, ptr %5, align 8
  store ptr %1, ptr %6, align 8, !tbaa !187
  store ptr %2, ptr %7, align 8, !tbaa !2765
  store ptr %3, ptr %8, align 8, !tbaa !3646
  %9 = load ptr, ptr %7, align 8, !tbaa !2765
  %10 = load ptr, ptr %8, align 8, !tbaa !3646
  call void @_ZNK6open3d13visualization22SelectionPolygonVolume13CropInPolygonERKNS_8geometry10PointCloudE(ptr dead_on_unwind writable sret(%"class.std::vector.600") align 8 %0, ptr noundef nonnull align 8 dereferenceable(80) %9, ptr noundef nonnull align 8 dereferenceable(144) %10)
  ret void
}

; Function Attrs: mustprogress ssp uwtable
define linkonce_odr hidden noundef nonnull align 8 dereferenceable(144) ptr @_ZN8pybind116detail7cast_opIRKN6open3d8geometry10PointCloudEEENS0_11type_casterINS0_14intrinsic_typeIT_E4typeEvE12cast_op_typeINSt20add_rvalue_referenceIS9_E4typeEEEOSC_(ptr noundef nonnull align 8 dereferenceable(24) %0) #3 comdat {
  %2 = alloca ptr, align 8
  store ptr %0, ptr %2, align 8, !tbaa !3656
  %3 = load ptr, ptr %2, align 8, !tbaa !3656
  %4 = call noundef nonnull align 8 dereferenceable(144) ptr @_ZN8pybind116detail16type_caster_baseIN6open3d8geometry10PointCloudEEcvRS4_Ev(ptr noundef nonnull align 8 dereferenceable(24) %3)
  ret ptr %4
}

; Function Attrs: mustprogress nounwind ssp uwtable
define linkonce_odr hidden noundef nonnull align 8 dereferenceable(24) ptr @_ZSt3getILm1EJN8pybind116detail11type_casterIN6open3d13visualization22SelectionPolygonVolumeEvEENS2_INS3_8geometry10PointCloudEvEEEERNSt13tuple_elementIXT_ESt5tupleIJDpT0_EEE4typeERSE_(ptr noundef nonnull align 8 dereferenceable(48) %0) #1 comdat {
  %2 = alloca ptr, align 8
  store ptr %0, ptr %2, align 8, !tbaa !3648
  %3 = load ptr, ptr %2, align 8, !tbaa !3648
  %4 = call noundef nonnull align 8 dereferenceable(24) ptr @_ZSt12__get_helperILm1EN8pybind116detail11type_casterIN6open3d8geometry10PointCloudEvEEJEERT0_RSt11_Tuple_implIXT_EJS7_DpT1_EE(ptr noundef nonnull align 8 dereferenceable(24) %3) #7
  ret ptr %4
}

; Function Attrs: mustprogress ssp uwtable
define linkonce_odr hidden noundef nonnull align 8 dereferenceable(80) ptr @_ZN8pybind116detail7cast_opIRKN6open3d13visualization22SelectionPolygonVolumeEEENS0_11type_casterINS0_14intrinsic_typeIT_E4typeEvE12cast_op_typeINSt20add_rvalue_referenceIS9_E4typeEEEOSC_(ptr noundef nonnull align 8 dereferenceable(24) %0) #3 comdat {
  %2 = alloca ptr, align 8
  store ptr %0, ptr %2, align 8, !tbaa !3441
  %3 = load ptr, ptr %2, align 8, !tbaa !3441
  %4 = call noundef nonnull align 8 dereferenceable(80) ptr @_ZN8pybind116detail16type_caster_baseIN6open3d13visualization22SelectionPolygonVolumeEEcvRS4_Ev(ptr noundef nonnull align 8 dereferenceable(24) %3)
  ret ptr %4
}

; Function Attrs: mustprogress nounwind ssp uwtable
define linkonce_odr hidden noundef nonnull align 8 dereferenceable(24) ptr @_ZSt3getILm0EJN8pybind116detail11type_casterIN6open3d13visualization22SelectionPolygonVolumeEvEENS2_INS3_8geometry10PointCloudEvEEEERNSt13tuple_elementIXT_ESt5tupleIJDpT0_EEE4typeERSE_(ptr noundef nonnull align 8 dereferenceable(48) %0) #1 comdat {
  %2 = alloca ptr, align 8
  store ptr %0, ptr %2, align 8, !tbaa !3648
  %3 = load ptr, ptr %2, align 8, !tbaa !3648
  %4 = call noundef nonnull align 8 dereferenceable(24) ptr @_ZSt12__get_helperILm0EN8pybind116detail11type_casterIN6open3d13visualization22SelectionPolygonVolumeEvEEJNS2_INS3_8geometry10PointCloudEvEEEERT0_RSt11_Tuple_implIXT_EJSA_DpT1_EE(ptr noundef nonnull align 8 dereferenceable(48) %3) #7
  ret ptr %4
}

; Function Attrs: mustprogress ssp uwtable
define internal void @"_ZNO8pybind116detail15argument_loaderIJRKN6open3d13visualization22SelectionPolygonVolumeERKNS2_8geometry10PointCloudEEE9call_implISt6vectorImSaImEERZNS3_40pybind_visualization_utility_definitionsERNS_7module_EE3$_2JLm0ELm1EENS0_9void_typeEEET_OT0_St16integer_sequenceImJXspT1_EEEOT2_"(ptr dead_on_unwind noalias writable sret(%"class.std::vector.600") align 8 %0, ptr noundef nonnull align 8 dereferenceable(48) %1, ptr noundef nonnull align 1 dereferenceable(1) %2, ptr noundef nonnull align 1 dereferenceable(1) %3) #3 align 2 !type !3743 {
  %5 = alloca ptr, align 8
  %6 = alloca ptr, align 8
  %7 = alloca ptr, align 8
  %8 = alloca ptr, align 8
  store ptr %0, ptr %5, align 8
  store ptr %1, ptr %6, align 8, !tbaa !3637
  store ptr %2, ptr %7, align 8, !tbaa !187
  store ptr %3, ptr %8, align 8, !tbaa !1407
  %9 = load ptr, ptr %6, align 8
  %10 = load ptr, ptr %7, align 8, !tbaa !187
  %11 = getelementptr inbounds nuw %"class.pybind11::detail::argument_loader.536", ptr %9, i32 0, i32 0
  %12 = call noundef nonnull align 8 dereferenceable(24) ptr @_ZSt3getILm0EJN8pybind116detail11type_casterIN6open3d13visualization22SelectionPolygonVolumeEvEENS2_INS3_8geometry10PointCloudEvEEEERNSt13tuple_elementIXT_ESt5tupleIJDpT0_EEE4typeERSE_(ptr noundef nonnull align 8 dereferenceable(48) %11) #7
  %13 = call noundef nonnull align 8 dereferenceable(80) ptr @_ZN8pybind116detail7cast_opIRKN6open3d13visualization22SelectionPolygonVolumeEEENS0_11type_casterINS0_14intrinsic_typeIT_E4typeEvE12cast_op_typeINSt20add_rvalue_referenceIS9_E4typeEEEOSC_(ptr noundef nonnull align 8 dereferenceable(24) %12)
  %14 = getelementptr inbounds nuw %"class.pybind11::detail::argument_loader.536", ptr %9, i32 0, i32 0
  %15 = call noundef nonnull align 8 dereferenceable(24) ptr @_ZSt3getILm1EJN8pybind116detail11type_casterIN6open3d13visualization22SelectionPolygonVolumeEvEENS2_INS3_8geometry10PointCloudEvEEEERNSt13tuple_elementIXT_ESt5tupleIJDpT0_EEE4typeERSE_(ptr noundef nonnull align 8 dereferenceable(48) %14) #7
  %16 = call noundef nonnull align 8 dereferenceable(144) ptr @_ZN8pybind116detail7cast_opIRKN6open3d8geometry10PointCloudEEENS0_11type_casterINS0_14intrinsic_typeIT_E4typeEvE12cast_op_typeINSt20add_rvalue_referenceIS9_E4typeEEEOSC_(ptr noundef nonnull align 8 dereferenceable(24) %15)
  call void @"_ZZN6open3d13visualization40pybind_visualization_utility_definitionsERN8pybind117module_EENK3$_2clERKNS0_22SelectionPolygonVolumeERKNS_8geometry10PointCloudE"(ptr dead_on_unwind writable sret(%"class.std::vector.600") align 8 %0, ptr noundef nonnull align 1 dereferenceable(1) %10, ptr noundef nonnull align 8 dereferenceable(80) %13, ptr noundef nonnull align 8 dereferenceable(144) %16)
  ret void
}

; Function Attrs: mustprogress ssp uwtable
define internal void @"_ZNO8pybind116detail15argument_loaderIJRKN6open3d13visualization22SelectionPolygonVolumeERKNS2_8geometry10PointCloudEEE4callISt6vectorImSaImEENS0_9void_typeERZNS3_40pybind_visualization_utility_definitionsERNS_7module_EE3$_2EENSt9enable_ifIXntsr3std7is_voidIT_EE5valueESM_E4typeEOT1_"(ptr dead_on_unwind noalias writable sret(%"class.std::vector.600") align 8 %0, ptr noundef nonnull align 8 dereferenceable(48) %1, ptr noundef nonnull align 1 dereferenceable(1) %2) #3 align 2 !type !3736 {
  %4 = alloca ptr, align 8
  %5 = alloca ptr, align 8
  %6 = alloca ptr, align 8
  %7 = alloca %"struct.pybind11::detail::void_type", align 1
  store ptr %0, ptr %4, align 8
  store ptr %1, ptr %5, align 8, !tbaa !3637
  store ptr %2, ptr %6, align 8, !tbaa !187
  %8 = load ptr, ptr %5, align 8
  %9 = load ptr, ptr %6, align 8, !tbaa !187
  call void @llvm.lifetime.start.p0(i64 1, ptr %7) #7
  call void @"_ZNO8pybind116detail15argument_loaderIJRKN6open3d13visualization22SelectionPolygonVolumeERKNS2_8geometry10PointCloudEEE9call_implISt6vectorImSaImEERZNS3_40pybind_visualization_utility_definitionsERNS_7module_EE3$_2JLm0ELm1EENS0_9void_typeEEET_OT0_St16integer_sequenceImJXspT1_EEEOT2_"(ptr dead_on_unwind writable sret(%"class.std::vector.600") align 8 %0, ptr noundef nonnull align 8 dereferenceable(48) %8, ptr noundef nonnull align 1 dereferenceable(1) %9, ptr noundef nonnull align 1 dereferenceable(1) %7)
  call void @llvm.lifetime.end.p0(i64 1, ptr %7) #7
  ret void
}